target datalayout = "e-m:e-p270:32:32-p271:32:32-p272:64:64-i64:64-i128:128-f80:128-n8:16:32:64-S128"
target triple = "x86_64-pc-linux-gnu"

%struct.___itt_global = type { [8 x i8], i64, i64, i64, i64, i64, i64, %union.pthread_mutex_t, ptr, ptr, ptr, ptr, ptr, ptr, ptr, ptr, i32, ptr, i32, ptr, ptr }
%union.pthread_mutex_t = type { %struct.__pthread_mutex_s }
%struct.__pthread_mutex_s = type { i32, i32, i32, i32, i32, i16, i16, %struct.__pthread_internal_list }
%struct.__pthread_internal_list = type { ptr, ptr }
%struct.___itt_id = type { i64, i64, i64 }

@__itt_task_begin_fn_ex_ptr__3_0 = global ptr @_ZL31__itt_task_begin_fn_ex_init_3_0PK13___itt_domainP19___itt_clock_domainy9___itt_idS4_Pv, align 8

; Function Attrs: mustprogress sspstrong uwtable
define internal void @_ZL31__itt_task_begin_fn_ex_init_3_0PK13___itt_domainP19___itt_clock_domainy9___itt_idS4_Pv(ptr noundef %0, ptr noundef %1, i64 noundef %2, ptr noundef byval(%struct.___itt_id) align 8 %3, ptr noundef byval(%struct.___itt_id) align 8 %4, ptr noundef %5) #0 {
  %7 = alloca ptr, align 8
  %8 = alloca ptr, align 8
  %9 = alloca i64, align 8
  %10 = alloca ptr, align 8
  %11 = alloca %struct.___itt_id, align 8
  %12 = alloca %struct.___itt_id, align 8
  store ptr %0, ptr %7, align 8, !tbaa !32
  store ptr %1, ptr %8, align 8, !tbaa !57
  store i64 %2, ptr %9, align 8, !tbaa !34
  store ptr %5, ptr %10, align 8, !tbaa !22
  %13 = load volatile i64, ptr getelementptr inbounds nuw (%struct.___itt_global, ptr @__itt__ittapi_global, i32 0, i32 4), align 8, !tbaa !3
  %14 = icmp ne i64 %13, 0
  br i1 %14, label %19, label %15

15:                                               ; preds = %6
  %16 = load ptr, ptr getelementptr inbounds nuw (%struct.___itt_global, ptr @__itt__ittapi_global, i32 0, i32 13), align 8, !tbaa !21
  %17 = icmp eq ptr %16, null
  br i1 %17, label %18, label %19

18:                                               ; preds = %15
  call void @ITT_DoOneTimeInitialization()
  br label %19

19:                                               ; preds = %18, %15, %6
  %20 = load ptr, ptr @__itt_task_begin_fn_ex_ptr__3_0, align 8, !tbaa !22
  %21 = icmp ne ptr %20, null
  br i1 %21, label %22, label %31

22:                                               ; preds = %19
  %23 = load ptr, ptr @__itt_task_begin_fn_ex_ptr__3_0, align 8, !tbaa !22
  %24 = icmp ne ptr %23, @_ZL31__itt_task_begin_fn_ex_init_3_0PK13___itt_domainP19___itt_clock_domainy9___itt_idS4_Pv
  br i1 %24, label %25, label %31

25:                                               ; preds = %22
  %26 = load ptr, ptr @__itt_task_begin_fn_ex_ptr__3_0, align 8, !tbaa !22
  %27 = load ptr, ptr %7, align 8, !tbaa !32
  %28 = load ptr, ptr %8, align 8, !tbaa !57
  %29 = load i64, ptr %9, align 8, !tbaa !34
  call void @llvm.memcpy.p0.p0.i64(ptr align 8 %11, ptr align 8 %3, i64 24, i1 false), !tbaa.struct !33
  call void @llvm.memcpy.p0.p0.i64(ptr align 8 %12, ptr align 8 %4, i64 24, i1 false), !tbaa.struct !33
  %30 = load ptr, ptr %10, align 8, !tbaa !22
  call void %26(ptr noundef %27, ptr noundef %28, i64 noundef %29, ptr noundef byval(%struct.___itt_id) align 8 %11, ptr noundef byval(%struct.___itt_id) align 8 %12, ptr noundef %30)
  br label %32

31:                                               ; preds = %22, %19
  br label %32

32:                                               ; preds = %31, %25
  ret void
}